target datalayout = "e-m:e-p270:32:32-p271:32:32-p272:64:64-i64:64-i128:128-f80:128-n8:16:32:64-S128"
target triple = "x86_64-pc-linux-gnu"

%struct.Vmem = type { ptr, i64, i64 }
%struct.ParseContext_ = type { %struct.TokenData, i32, %union.SourceSpan, %union.SourceSpan, ptr, %struct.Lexer }
%struct.TokenData = type { ptr, i64, %union.anon.86 }
%union.anon.86 = type { %struct.anon.89 }
%struct.anon.89 = type { %struct.Int128_, i8 }
%struct.Int128_ = type { i64, i64 }
%union.SourceSpan = type { i64 }
%struct.Lexer = type { ptr, ptr, ptr, ptr, i32, i32, ptr, ptr, ptr, %struct.TokenData, %union.SourceSpan, i32, i32 }
%struct.Ast_ = type { %union.SourceSpan, i32, i8, %union.anon.62 }
%union.anon.62 = type { %struct.AstDocDirective_ }
%struct.AstDocDirective_ = type { i8, %union.anon.65 }
%union.anon.65 = type { %struct.anon.66 }
%struct.anon.66 = type { ptr, %union.SourceSpan, i8 }
%struct.Expr_ = type { ptr, %union.SourceSpan, i16, %union.anon.30 }
%union.anon.30 = type { %struct.ExprAnySwitch }
%struct.ExprAnySwitch = type { i8, %union.anon.32 }
%union.anon.32 = type { %struct.anon.33 }
%struct.anon.33 = type { ptr, %union.SourceSpan, ptr }
%struct.AstCaseStmt = type { i32, i32, ptr, ptr }
%struct.AstCompoundStmt = type { i32 }
%struct.anon.0 = type { i16, i8, i8, i32 }

@poisoned_ast = external global ptr, align 8
@.str.13 = private unnamed_addr constant [23 x i8] c"Missing ':' after case\00", align 1
@expr_arena = external global %struct.Vmem, align 8
@ast_arena = external global %struct.Vmem, align 8

; Function Attrs: nounwind uwtable
define internal i32 @astid(ptr noundef %0) #0 {
  %2 = alloca ptr, align 8
  store ptr %0, ptr %2, align 8
  %3 = load ptr, ptr %2, align 8
  %4 = load ptr, ptr @ast_arena, align 8
  %5 = ptrtoint ptr %3 to i64
  %6 = ptrtoint ptr %4 to i64
  %7 = sub i64 %5, %6
  %8 = sdiv exact i64 %7, 48
  %9 = trunc i64 %8 to i32
  ret i32 %9
}

; Function Attrs: nounwind uwtable
define internal zeroext i1 @token_type_ends_case(i32 noundef %0, i32 noundef %1, i32 noundef %2) #0 {
  %4 = alloca i32, align 4
  %5 = alloca i32, align 4
  %6 = alloca i32, align 4
  store i32 %0, ptr %4, align 4
  store i32 %1, ptr %5, align 4
  store i32 %2, ptr %6, align 4
  %7 = load i32, ptr %4, align 4
  %8 = load i32, ptr %5, align 4
  %9 = icmp eq i32 %7, %8
  br i1 %9, label %20, label %10

10:                                               ; preds = %3
  %11 = load i32, ptr %4, align 4
  %12 = load i32, ptr %6, align 4
  %13 = icmp eq i32 %11, %12
  br i1 %13, label %20, label %14

14:                                               ; preds = %10
  %15 = load i32, ptr %4, align 4
  %16 = icmp eq i32 %15, 24
  br i1 %16, label %20, label %17

17:                                               ; preds = %14
  %18 = load i32, ptr %4, align 4
  %19 = icmp eq i32 %18, 158
  br label %20

20:                                               ; preds = %17, %14, %10, %3
  %21 = phi i1 [ true, %14 ], [ true, %10 ], [ true, %3 ], [ %19, %17 ]
  ret i1 %21
}

; Function Attrs: nounwind uwtable
define internal ptr @parse_case_stmts(ptr noundef %0, i32 noundef %1, i32 noundef %2) #0 {
  %4 = alloca %union.SourceSpan, align 8
  %5 = alloca i32, align 4
  %6 = alloca ptr, align 8
  %7 = alloca ptr, align 8
  %8 = alloca ptr, align 8
  %9 = alloca ptr, align 8
  %10 = alloca ptr, align 8
  %11 = alloca ptr, align 8
  %12 = alloca i32, align 4
  %13 = alloca i32, align 4
  %14 = alloca ptr, align 8
  %15 = alloca ptr, align 8
  %16 = alloca ptr, align 8
  %17 = alloca ptr, align 8
  store ptr %0, ptr %11, align 8
  store i32 %1, ptr %12, align 4
  store i32 %2, ptr %13, align 4
  %18 = load ptr, ptr %11, align 8
  %19 = getelementptr inbounds %struct.ParseContext_, ptr %18, i32 0, i32 1
  %20 = load i32, ptr %19, align 8
  %21 = load i32, ptr %12, align 4
  %22 = load i32, ptr %13, align 4
  %23 = call zeroext i1 @token_type_ends_case(i32 noundef %20, i32 noundef %21, i32 noundef %22)
  br i1 %23, label %24, label %25

24:                                               ; preds = %3
  store ptr null, ptr %10, align 8
  br label %76

25:                                               ; preds = %3
  %26 = load ptr, ptr %11, align 8
  %27 = getelementptr inbounds %struct.ParseContext_, ptr %26, i32 0, i32 2
  %28 = getelementptr inbounds %union.SourceSpan, ptr %27, i32 0, i32 0
  %29 = load i64, ptr %28, align 8
  store i64 %29, ptr %4, align 8
  store i32 6, ptr %5, align 4
  %30 = call ptr @ast_calloc()
  store ptr %30, ptr %6, align 8
  %31 = load ptr, ptr %6, align 8
  call void @llvm.memcpy.p0.p0.i64(ptr align 8 %31, ptr align 8 %4, i64 8, i1 false)
  %32 = load i32, ptr %5, align 4
  %33 = load ptr, ptr %6, align 8
  %34 = getelementptr inbounds %struct.Ast_, ptr %33, i32 0, i32 2
  %35 = trunc i32 %32 to i8
  store i8 %35, ptr %34, align 4
  %36 = load ptr, ptr %6, align 8
  store ptr %36, ptr %14, align 8
  %37 = load ptr, ptr %14, align 8
  %38 = getelementptr inbounds %struct.Ast_, ptr %37, i32 0, i32 3
  %39 = getelementptr inbounds %struct.AstCompoundStmt, ptr %38, i32 0, i32 0
  store ptr %39, ptr %15, align 8
  br label %40

40:                                               ; preds = %64, %25
  %41 = load ptr, ptr %11, align 8
  %42 = getelementptr inbounds %struct.ParseContext_, ptr %41, i32 0, i32 1
  %43 = load i32, ptr %42, align 8
  %44 = load i32, ptr %12, align 4
  %45 = load i32, ptr %13, align 4
  %46 = call zeroext i1 @token_type_ends_case(i32 noundef %43, i32 noundef %44, i32 noundef %45)
  %47 = xor i1 %46, true
  br i1 %47, label %48, label %74

48:                                               ; preds = %40
  %49 = load ptr, ptr %11, align 8
  %50 = call ptr @parse_stmt(ptr noundef %49)
  store ptr %50, ptr %16, align 8
  %51 = load ptr, ptr %16, align 8
  store ptr %51, ptr %9, align 8
  %52 = load ptr, ptr %9, align 8
  %53 = icmp eq ptr %52, null
  br i1 %53, label %60, label %54

54:                                               ; preds = %48
  %55 = load ptr, ptr %9, align 8
  %56 = getelementptr inbounds %struct.Ast_, ptr %55, i32 0, i32 2
  %57 = load i8, ptr %56, align 4
  %58 = zext i8 %57 to i32
  %59 = icmp ne i32 %58, 0
  br label %60

60:                                               ; preds = %54, %48
  %61 = phi i1 [ true, %48 ], [ %59, %54 ]
  br i1 %61, label %64, label %62

62:                                               ; preds = %60
  %63 = load ptr, ptr @poisoned_ast, align 8
  store ptr %63, ptr %10, align 8
  br label %76

64:                                               ; preds = %60
  %65 = load ptr, ptr %16, align 8
  store ptr %65, ptr %17, align 8
  %66 = load ptr, ptr %17, align 8
  store ptr %15, ptr %7, align 8
  store ptr %66, ptr %8, align 8
  %67 = load ptr, ptr %8, align 8
  %68 = call i32 @astid(ptr noundef %67)
  %69 = load ptr, ptr %7, align 8
  %70 = load ptr, ptr %69, align 8
  store i32 %68, ptr %70, align 4
  %71 = load ptr, ptr %8, align 8
  %72 = getelementptr inbounds %struct.Ast_, ptr %71, i32 0, i32 1
  %73 = load ptr, ptr %7, align 8
  store ptr %72, ptr %73, align 8
  br label %40, !llvm.loop !16

74:                                               ; preds = %40
  %75 = load ptr, ptr %14, align 8
  store ptr %75, ptr %10, align 8
  br label %76

76:                                               ; preds = %74, %62, %24
  %77 = load ptr, ptr %10, align 8
  ret ptr %77
}

; Function Attrs: nounwind uwtable
define internal i64 @extend_span_with_token(i64 %0, i64 %1) #0 {
  %3 = alloca %union.SourceSpan, align 8
  %4 = alloca %union.SourceSpan, align 8
  %5 = alloca %union.SourceSpan, align 8
  %6 = getelementptr inbounds %union.SourceSpan, ptr %4, i32 0, i32 0
  store i64 %0, ptr %6, align 8
  %7 = getelementptr inbounds %union.SourceSpan, ptr %5, i32 0, i32 0
  store i64 %1, ptr %7, align 8
  %8 = getelementptr inbounds %struct.anon.0, ptr %4, i32 0, i32 3
  %9 = load i32, ptr %8, align 4
  %10 = getelementptr inbounds %struct.anon.0, ptr %5, i32 0, i32 3
  %11 = load i32, ptr %10, align 4
  %12 = icmp ne i32 %9, %11
  br i1 %12, label %13, label %14

13:                                               ; preds = %2
  call void @llvm.memcpy.p0.p0.i64(ptr align 8 %3, ptr align 8 %4, i64 8, i1 false)
  br label %28

14:                                               ; preds = %2
  %15 = getelementptr inbounds %struct.anon.0, ptr %5, i32 0, i32 2
  %16 = load i8, ptr %15, align 1
  %17 = zext i8 %16 to i32
  %18 = getelementptr inbounds %struct.anon.0, ptr %5, i32 0, i32 1
  %19 = load i8, ptr %18, align 2
  %20 = zext i8 %19 to i32
  %21 = add nsw i32 %17, %20
  %22 = getelementptr inbounds %struct.anon.0, ptr %4, i32 0, i32 2
  %23 = load i8, ptr %22, align 1
  %24 = zext i8 %23 to i32
  %25 = sub nsw i32 %21, %24
  %26 = trunc i32 %25 to i8
  %27 = getelementptr inbounds %struct.anon.0, ptr %4, i32 0, i32 1
  store i8 %26, ptr %27, align 2
  call void @llvm.memcpy.p0.p0.i64(ptr align 8 %3, ptr align 8 %4, i64 8, i1 false)
  br label %28

28:                                               ; preds = %14, %13
  %29 = getelementptr inbounds %union.SourceSpan, ptr %3, i32 0, i32 0
  %30 = load i64, ptr %29, align 8
  ret i64 %30
}

; Function Attrs: nounwind uwtable
define internal i32 @exprid(ptr noundef %0) #0 {
  %2 = alloca ptr, align 8
  store ptr %0, ptr %2, align 8
  %3 = load ptr, ptr %2, align 8
  %4 = load ptr, ptr @expr_arena, align 8
  %5 = ptrtoint ptr %3 to i64
  %6 = ptrtoint ptr %4 to i64
  %7 = sub i64 %5, %6
  %8 = sdiv exact i64 %7, 56
  %9 = trunc i64 %8 to i32
  ret i32 %9
}

; Function Attrs: nounwind uwtable
define internal ptr @ast_calloc() #0 {
  %1 = call ptr @vmem_alloc(ptr noundef @ast_arena, i64 noundef 48)
  ret ptr %1
}

; Function Attrs: nounwind uwtable
define internal ptr @parse_case_stmt(ptr noundef %0, i32 noundef %1, i32 noundef %2) #0 {
  %4 = alloca %union.SourceSpan, align 8
  %5 = alloca i32, align 4
  %6 = alloca ptr, align 8
  %7 = alloca ptr, align 8
  %8 = alloca ptr, align 8
  %9 = alloca ptr, align 8
  %10 = alloca ptr, align 8
  %11 = alloca ptr, align 8
  %12 = alloca i32, align 4
  %13 = alloca i32, align 4
  %14 = alloca ptr, align 8
  %15 = alloca ptr, align 8
  %16 = alloca ptr, align 8
  %17 = alloca ptr, align 8
  %18 = alloca %union.SourceSpan, align 8
  %19 = alloca ptr, align 8
  store ptr %0, ptr %11, align 8
  store i32 %1, ptr %12, align 4
  store i32 %2, ptr %13, align 4
  %20 = load ptr, ptr %11, align 8
  %21 = getelementptr inbounds %struct.ParseContext_, ptr %20, i32 0, i32 2
  %22 = getelementptr inbounds %union.SourceSpan, ptr %21, i32 0, i32 0
  %23 = load i64, ptr %22, align 8
  store i64 %23, ptr %4, align 8
  store i32 5, ptr %5, align 4
  %24 = call ptr @ast_calloc()
  store ptr %24, ptr %6, align 8
  %25 = load ptr, ptr %6, align 8
  call void @llvm.memcpy.p0.p0.i64(ptr align 8 %25, ptr align 8 %4, i64 8, i1 false)
  %26 = load i32, ptr %5, align 4
  %27 = load ptr, ptr %6, align 8
  %28 = getelementptr inbounds %struct.Ast_, ptr %27, i32 0, i32 2
  %29 = trunc i32 %26 to i8
  store i8 %29, ptr %28, align 4
  %30 = load ptr, ptr %6, align 8
  store ptr %30, ptr %14, align 8
  %31 = load ptr, ptr %11, align 8
  call void @advance(ptr noundef %31)
  %32 = load ptr, ptr %11, align 8
  %33 = call ptr @parse_expr(ptr noundef %32)
  store ptr %33, ptr %15, align 8
  %34 = load ptr, ptr %15, align 8
  store ptr %34, ptr %7, align 8
  %35 = load ptr, ptr %7, align 8
  %36 = icmp eq ptr %35, null
  br i1 %36, label %44, label %37

37:                                               ; preds = %3
  %38 = load ptr, ptr %7, align 8
  %39 = getelementptr inbounds %struct.Expr_, ptr %38, i32 0, i32 2
  %40 = load i16, ptr %39, align 8
  %41 = and i16 %40, 255
  %42 = zext i16 %41 to i32
  %43 = icmp ne i32 %42, 0
  br label %44

44:                                               ; preds = %37, %3
  %45 = phi i1 [ true, %3 ], [ %43, %37 ]
  br i1 %45, label %48, label %46

46:                                               ; preds = %44
  %47 = load ptr, ptr @poisoned_ast, align 8
  store ptr %47, ptr %10, align 8
  br label %140

48:                                               ; preds = %44
  %49 = load ptr, ptr %15, align 8
  store ptr %49, ptr %16, align 8
  %50 = load ptr, ptr %16, align 8
  %51 = call i32 @exprid(ptr noundef %50)
  %52 = load ptr, ptr %14, align 8
  %53 = getelementptr inbounds %struct.Ast_, ptr %52, i32 0, i32 3
  %54 = getelementptr inbounds %struct.AstCaseStmt, ptr %53, i32 0, i32 0
  store i32 %51, ptr %54, align 8
  %55 = load ptr, ptr %16, align 8
  %56 = getelementptr inbounds %struct.Expr_, ptr %55, i32 0, i32 2
  %57 = load i16, ptr %56, align 8
  %58 = and i16 %57, 255
  %59 = zext i16 %58 to i32
  %60 = icmp eq i32 %59, 62
  br i1 %60, label %61, label %67

61:                                               ; preds = %48
  %62 = load ptr, ptr %16, align 8
  %63 = getelementptr inbounds %struct.Expr_, ptr %62, i32 0, i32 2
  %64 = load i16, ptr %63, align 8
  %65 = and i16 %64, -256
  %66 = or i16 %65, 60
  store i16 %66, ptr %63, align 8
  br label %67

67:                                               ; preds = %61, %48
  %68 = load ptr, ptr %11, align 8
  %69 = call zeroext i1 @try_consume(ptr noundef %68, i32 noundef 36)
  br i1 %69, label %70, label %93

70:                                               ; preds = %67
  %71 = load ptr, ptr %11, align 8
  %72 = call ptr @parse_expr(ptr noundef %71)
  store ptr %72, ptr %17, align 8
  %73 = load ptr, ptr %17, align 8
  store ptr %73, ptr %8, align 8
  %74 = load ptr, ptr %8, align 8
  %75 = icmp eq ptr %74, null
  br i1 %75, label %83, label %76

76:                                               ; preds = %70
  %77 = load ptr, ptr %8, align 8
  %78 = getelementptr inbounds %struct.Expr_, ptr %77, i32 0, i32 2
  %79 = load i16, ptr %78, align 8
  %80 = and i16 %79, 255
  %81 = zext i16 %80 to i32
  %82 = icmp ne i32 %81, 0
  br label %83

83:                                               ; preds = %76, %70
  %84 = phi i1 [ true, %70 ], [ %82, %76 ]
  br i1 %84, label %87, label %85

85:                                               ; preds = %83
  %86 = load ptr, ptr @poisoned_ast, align 8
  store ptr %86, ptr %10, align 8
  br label %140

87:                                               ; preds = %83
  %88 = load ptr, ptr %17, align 8
  %89 = call i32 @exprid(ptr noundef %88)
  %90 = load ptr, ptr %14, align 8
  %91 = getelementptr inbounds %struct.Ast_, ptr %90, i32 0, i32 3
  %92 = getelementptr inbounds %struct.AstCaseStmt, ptr %91, i32 0, i32 1
  store i32 %89, ptr %92, align 4
  br label %93

93:                                               ; preds = %87, %67
  %94 = load ptr, ptr %11, align 8
  %95 = call zeroext i1 @try_consume(ptr noundef %94, i32 noundef 7)
  br i1 %95, label %102, label %96

96:                                               ; preds = %93
  %97 = load ptr, ptr %11, align 8
  %98 = getelementptr inbounds %struct.ParseContext_, ptr %97, i32 0, i32 3
  %99 = getelementptr inbounds %union.SourceSpan, ptr %98, i32 0, i32 0
  %100 = load i64, ptr %99, align 8
  call void (i64, ptr, ...) @sema_error_at(i64 %100, ptr noundef @.str.13)
  %101 = load ptr, ptr @poisoned_ast, align 8
  store ptr %101, ptr %10, align 8
  br label %140

102:                                              ; preds = %93
  br label %103

103:                                              ; preds = %102
  %104 = load ptr, ptr %14, align 8
  %105 = getelementptr inbounds %struct.Ast_, ptr %104, i32 0, i32 0
  %106 = load ptr, ptr %14, align 8
  %107 = getelementptr inbounds %struct.Ast_, ptr %106, i32 0, i32 0
  %108 = load ptr, ptr %11, align 8
  %109 = getelementptr inbounds %struct.ParseContext_, ptr %108, i32 0, i32 3
  %110 = getelementptr inbounds %union.SourceSpan, ptr %107, i32 0, i32 0
  %111 = load i64, ptr %110, align 8
  %112 = getelementptr inbounds %union.SourceSpan, ptr %109, i32 0, i32 0
  %113 = load i64, ptr %112, align 8
  %114 = call i64 @extend_span_with_token(i64 %111, i64 %113)
  %115 = getelementptr inbounds %union.SourceSpan, ptr %18, i32 0, i32 0
  store i64 %114, ptr %115, align 8
  call void @llvm.memcpy.p0.p0.i64(ptr align 8 %105, ptr align 8 %18, i64 8, i1 false)
  br label %116

116:                                              ; preds = %103
  %117 = load ptr, ptr %11, align 8
  %118 = load i32, ptr %12, align 4
  %119 = load i32, ptr %13, align 4
  %120 = call ptr @parse_case_stmts(ptr noundef %117, i32 noundef %118, i32 noundef %119)
  store ptr %120, ptr %19, align 8
  %121 = load ptr, ptr %19, align 8
  store ptr %121, ptr %9, align 8
  %122 = load ptr, ptr %9, align 8
  %123 = icmp eq ptr %122, null
  br i1 %123, label %130, label %124

124:                                              ; preds = %116
  %125 = load ptr, ptr %9, align 8
  %126 = getelementptr inbounds %struct.Ast_, ptr %125, i32 0, i32 2
  %127 = load i8, ptr %126, align 4
  %128 = zext i8 %127 to i32
  %129 = icmp ne i32 %128, 0
  br label %130

130:                                              ; preds = %124, %116
  %131 = phi i1 [ true, %116 ], [ %129, %124 ]
  br i1 %131, label %134, label %132

132:                                              ; preds = %130
  %133 = load ptr, ptr @poisoned_ast, align 8
  store ptr %133, ptr %10, align 8
  br label %140

134:                                              ; preds = %130
  %135 = load ptr, ptr %19, align 8
  %136 = load ptr, ptr %14, align 8
  %137 = getelementptr inbounds %struct.Ast_, ptr %136, i32 0, i32 3
  %138 = getelementptr inbounds %struct.AstCaseStmt, ptr %137, i32 0, i32 2
  store ptr %135, ptr %138, align 8
  %139 = load ptr, ptr %14, align 8
  store ptr %139, ptr %10, align 8
  br label %140

140:                                              ; preds = %134, %132, %96, %85, %46
  %141 = load ptr, ptr %10, align 8
  ret ptr %141
}