; Function Attrs: nounwind uwtable
define internal fastcc ptr @parse_case_stmt(ptr noundef %0, i32 noundef %1, i32 noundef %2) unnamed_addr #0 {
  %4 = getelementptr inbounds i8, ptr %0, i64 48
  %5 = load i64, ptr %4, align 8
  %6 = tail call ptr @vmem_alloc(ptr noundef nonnull @ast_arena, i64 noundef 48) #5
  store i64 %5, ptr %6, align 8
  %7 = getelementptr inbounds i8, ptr %6, i64 12
  store i8 5, ptr %7, align 4
  tail call void @advance(ptr noundef %0) #5
  %8 = tail call ptr @parse_expr(ptr noundef %0) #5
  %9 = icmp eq ptr %8, null
  br i1 %9, label %.critedge, label %10

10:                                               ; preds = %3
  %11 = getelementptr inbounds i8, ptr %8, i64 16
  %12 = load i16, ptr %11, align 8
  %13 = and i16 %12, 255
  %.not = icmp eq i16 %13, 0
  br i1 %.not, label %15, label %.split

.split:                                           ; preds = %10
  %14 = ptrtoint ptr %8 to i64
  br label %.critedge

15:                                               ; preds = %10
  %16 = load ptr, ptr @poisoned_ast, align 8
  br label %92

.critedge:                                        ; preds = %3, %.split
  %.sink = phi i64 [ %14, %.split ], [ 0, %3 ]
  %.sink51 = load ptr, ptr @expr_arena, align 8
  %17 = ptrtoint ptr %.sink51 to i64
  %18 = sub i64 %.sink, %17
  %phi.call.in = sdiv exact i64 %18, 56
  %phi.call = trunc i64 %phi.call.in to i32
  %19 = getelementptr inbounds i8, ptr %6, i64 16
  store i32 %phi.call, ptr %19, align 8
  %20 = getelementptr inbounds i8, ptr %8, i64 16
  %21 = load i16, ptr %20, align 8
  %22 = and i16 %21, 255
  %23 = icmp eq i16 %22, 62
  br i1 %23, label %24, label %26

24:                                               ; preds = %.critedge
  %25 = and i16 %21, -196
  store i16 %25, ptr %20, align 8
  br label %26

26:                                               ; preds = %24, %.critedge
  %27 = tail call zeroext i1 @try_consume(ptr noundef nonnull %0, i32 noundef 36) #5
  br i1 %27, label %28, label %41

28:                                               ; preds = %26
  %29 = tail call ptr @parse_expr(ptr noundef nonnull %0) #5
  %30 = icmp eq ptr %29, null
  br i1 %30, label %.critedge2, label %31

31:                                               ; preds = %28
  %32 = getelementptr inbounds i8, ptr %29, i64 16
  %33 = load i16, ptr %32, align 8
  %34 = and i16 %33, 255
  %.not48 = icmp eq i16 %34, 0
  br i1 %.not48, label %36, label %.split42

.split42:                                         ; preds = %31
  %35 = ptrtoint ptr %29 to i64
  br label %.critedge2

36:                                               ; preds = %31
  %37 = load ptr, ptr @poisoned_ast, align 8
  br label %92

.critedge2:                                       ; preds = %28, %.split42
  %.sink52 = phi i64 [ %35, %.split42 ], [ 0, %28 ]
  %.sink54 = load ptr, ptr @expr_arena, align 8
  %38 = ptrtoint ptr %.sink54 to i64
  %39 = sub i64 %.sink52, %38
  %phi.call44.in = sdiv exact i64 %39, 56
  %phi.call44 = trunc i64 %phi.call44.in to i32
  %40 = getelementptr inbounds i8, ptr %6, i64 20
  store i32 %phi.call44, ptr %40, align 4
  br label %41

41:                                               ; preds = %.critedge2, %26
  %42 = tail call zeroext i1 @try_consume(ptr noundef nonnull %0, i32 noundef 7) #5
  %43 = getelementptr inbounds i8, ptr %0, i64 56
  br i1 %42, label %47, label %44

44:                                               ; preds = %41
  %45 = load i64, ptr %43, align 8
  tail call void (i64, ptr, ...) @sema_error_at(i64 %45, ptr noundef nonnull @.str.13) #5
  %46 = load ptr, ptr @poisoned_ast, align 8
  br label %92

47:                                               ; preds = %41
  %48 = load i64, ptr %6, align 8
  %49 = load i64, ptr %43, align 8
  %.not.unshifted.i = xor i64 %49, %48
  %.not.i = icmp ult i64 %.not.unshifted.i, 4294967296
  br i1 %.not.i, label %51, label %50

50:                                               ; preds = %47
  %.sroa.33.0.extract.shift.i = lshr i64 %48, 16
  br label %extend_span_with_token.exit

51:                                               ; preds = %47
  %.sroa.4.0.extract.shift.i = lshr i64 %48, 24
  %52 = trunc i64 %49 to i32
  %53 = lshr i32 %52, 24
  %54 = lshr i32 %52, 16
  %55 = trunc i64 %.sroa.4.0.extract.shift.i to i32
  %56 = sub i32 %54, %55
  %57 = add i32 %56, %53
  %58 = zext i32 %57 to i64
  br label %extend_span_with_token.exit

extend_span_with_token.exit:                      ; preds = %50, %51
  %.sroa.311.0.i = phi i64 [ %.sroa.33.0.extract.shift.i, %50 ], [ %58, %51 ]
  %.sroa.311.0.insert.ext.i = shl nuw i64 %.sroa.311.0.i, 16
  %.sroa.311.0.insert.shift.i = and i64 %.sroa.311.0.insert.ext.i, 16711680
  %59 = and i64 %48, -16711681
  %.sroa.010.0.insert.insert.i = or disjoint i64 %.sroa.311.0.insert.shift.i, %59
  store i64 %.sroa.010.0.insert.insert.i, ptr %6, align 8
  %60 = getelementptr inbounds i8, ptr %0, i64 40
  %61 = load i32, ptr %60, align 8
  %.fr.i = freeze i32 %61
  %62 = icmp eq i32 %.fr.i, %1
  %63 = icmp eq i32 %.fr.i, %2
  %or.cond.i = or i1 %62, %63
  br i1 %or.cond.i, label %.critedge4, label %switch.early.test.i

switch.early.test.i:                              ; preds = %extend_span_with_token.exit
  switch i32 %.fr.i, label %64 [
    i32 158, label %.critedge4
    i32 24, label %.critedge4
  ]

64:                                               ; preds = %switch.early.test.i
  %65 = load i64, ptr %4, align 8
  %66 = tail call ptr @vmem_alloc(ptr noundef nonnull @ast_arena, i64 noundef 48) #5
  store i64 %65, ptr %66, align 8
  %67 = getelementptr inbounds i8, ptr %66, i64 12
  store i8 6, ptr %67, align 4
  %68 = load i32, ptr %60, align 8
  %.fr3032.i = freeze i32 %68
  %69 = icmp eq i32 %.fr3032.i, %1
  %70 = icmp eq i32 %.fr3032.i, %2
  %or.cond3133.i = or i1 %69, %70
  br i1 %or.cond3133.i, label %.critedge4, label %switch.early.test29.preheader.i

switch.early.test29.preheader.i:                  ; preds = %64
  %71 = getelementptr inbounds i8, ptr %66, i64 16
  br label %switch.early.test29.i

switch.early.test29.i:                            ; preds = %.critedge.i, %switch.early.test29.preheader.i
  %.fr3035.i = phi i32 [ %.fr30.i, %.critedge.i ], [ %.fr3032.i, %switch.early.test29.preheader.i ]
  %.02334.i = phi ptr [ %83, %.critedge.i ], [ %71, %switch.early.test29.preheader.i ]
  switch i32 %.fr3035.i, label %72 [
    i32 158, label %parse_case_stmts.exit
    i32 24, label %parse_case_stmts.exit
  ]

72:                                               ; preds = %switch.early.test29.i
  %73 = tail call ptr @parse_stmt(ptr noundef nonnull %0)
  %74 = icmp eq ptr %73, null
  br i1 %74, label %.critedge.i, label %75

75:                                               ; preds = %72
  %76 = getelementptr inbounds i8, ptr %73, i64 12
  %77 = load i8, ptr %76, align 4
  %.not.i55 = icmp eq i8 %77, 0
  br i1 %.not.i55, label %79, label %.split.i

.split.i:                                         ; preds = %75
  %78 = ptrtoint ptr %73 to i64
  br label %.critedge.i

79:                                               ; preds = %75
  %80 = load ptr, ptr @poisoned_ast, align 8
  br label %parse_case_stmts.exit

.critedge.i:                                      ; preds = %72, %.split.i
  %.sink.i = phi i64 [ %78, %.split.i ], [ 0, %72 ]
  %.sink38.i = load ptr, ptr @ast_arena, align 8
  %81 = ptrtoint ptr %.sink38.i to i64
  %82 = sub i64 %.sink.i, %81
  %phi.call.in.i = sdiv exact i64 %82, 48
  %phi.call.i = trunc i64 %phi.call.in.i to i32
  store i32 %phi.call.i, ptr %.02334.i, align 4
  %83 = getelementptr inbounds i8, ptr %73, i64 8
  %84 = load i32, ptr %60, align 8
  %.fr30.i = freeze i32 %84
  %85 = icmp eq i32 %.fr30.i, %1
  %86 = icmp eq i32 %.fr30.i, %2
  %or.cond31.i = or i1 %85, %86
  br i1 %or.cond31.i, label %parse_case_stmts.exit, label %switch.early.test29.i, !llvm.loop !7

parse_case_stmts.exit:                            ; preds = %switch.early.test29.i, %switch.early.test29.i, %.critedge.i, %79
  %.0.i = phi ptr [ %80, %79 ], [ %66, %.critedge.i ], [ %66, %switch.early.test29.i ], [ %66, %switch.early.test29.i ]
  %87 = icmp eq ptr %.0.i, null
  br i1 %87, label %.critedge4, label %parse_case_stmts.exit.thread58

parse_case_stmts.exit.thread58:                   ; preds = %parse_case_stmts.exit
  %.phi.trans.insert = getelementptr inbounds i8, ptr %.0.i, i64 12
  %.pre = load i8, ptr %.phi.trans.insert, align 4
  %88 = icmp eq i8 %.pre, 0
  br i1 %88, label %89, label %.critedge4

89:                                               ; preds = %parse_case_stmts.exit.thread58
  %90 = load ptr, ptr @poisoned_ast, align 8
  br label %92

.critedge4:                                       ; preds = %64, %extend_span_with_token.exit, %switch.early.test.i, %switch.early.test.i, %parse_case_stmts.exit, %parse_case_stmts.exit.thread58
  %.0.i57 = phi ptr [ null, %parse_case_stmts.exit ], [ %.0.i, %parse_case_stmts.exit.thread58 ], [ null, %switch.early.test.i ], [ null, %switch.early.test.i ], [ null, %extend_span_with_token.exit ], [ %66, %64 ]
  %91 = getelementptr inbounds i8, ptr %6, i64 24
  store ptr %.0.i57, ptr %91, align 8
  br label %92

92:                                               ; preds = %.critedge4, %89, %44, %36, %15
  %.0 = phi ptr [ %6, %.critedge4 ], [ %90, %89 ], [ %46, %44 ], [ %37, %36 ], [ %16, %15 ]
  ret ptr %.0
}